target datalayout = "e-m:e-p270:32:32-p271:32:32-p272:64:64-i64:64-i128:128-f80:128-n8:16:32:64-S128"
target triple = "x86_64-pc-linux-gnu"

%"class.llvm::DenseMap.128" = type <{ ptr, i32, i32, i32, [4 x i8] }>
%"class.std::unique_ptr.441" = type { %"struct.std::__uniq_ptr_data.442" }
%"struct.std::__uniq_ptr_data.442" = type { %"class.std::__uniq_ptr_impl.443" }
%"class.std::__uniq_ptr_impl.443" = type { %"class.std::tuple.444" }
%"class.std::tuple.444" = type { %"struct.std::_Tuple_impl.445" }
%"struct.std::_Tuple_impl.445" = type { %"struct.std::_Head_base.448" }
%"struct.std::_Head_base.448" = type { ptr }
%"class.(anonymous namespace)::MicrosoftNumberingContext.base" = type { %"class.clang::MangleNumberingContext.base", [4 x i8], %"class.llvm::DenseMap.128", i32, i32, i32 }
%"class.clang::MangleNumberingContext.base" = type <{ ptr, i32 }>
%"class.(anonymous namespace)::MicrosoftNumberingContext" = type { %"class.clang::MangleNumberingContext.base", [4 x i8], %"class.llvm::DenseMap.128", i32, i32, i32, [4 x i8] }
%"struct.llvm::detail::DenseMapPair.519" = type { %"struct.std::pair.base", [4 x i8] }
%"struct.std::pair.base" = type <{ ptr, i32 }>
%"struct.std::pair.520" = type <{ ptr, i32, [4 x i8] }>
%"class.(anonymous namespace)::MSSYCLNumberingContext" = type { %"class.(anonymous namespace)::MicrosoftNumberingContext.base", %"class.std::unique_ptr.441" }

; Function Attrs: mustprogress nounwind uwtable
define linkonce_odr hidden noundef nonnull align 1 dereferenceable(1) ptr @_ZNSt10_Head_baseILm1ESt14default_deleteIN5clang22MangleNumberingContextEELb1EE7_M_headERS4_(ptr noundef nonnull align 1 dereferenceable(1) %0) #0 comdat align 2 {
  %2 = alloca ptr, align 8
  store ptr %0, ptr %2, align 8
  %3 = load ptr, ptr %2, align 8
  ret ptr %3
}

; Function Attrs: mustprogress nounwind uwtable
define linkonce_odr hidden noundef nonnull align 1 dereferenceable(1) ptr @_ZNSt11_Tuple_implILm1EJSt14default_deleteIN5clang22MangleNumberingContextEEEE7_M_headERS4_(ptr noundef nonnull align 1 dereferenceable(1) %0) #0 comdat align 2 {
  %2 = alloca ptr, align 8
  store ptr %0, ptr %2, align 8
  %3 = load ptr, ptr %2, align 8
  %4 = call noundef nonnull align 1 dereferenceable(1) ptr @_ZNSt10_Head_baseILm1ESt14default_deleteIN5clang22MangleNumberingContextEELb1EE7_M_headERS4_(ptr noundef nonnull align 1 dereferenceable(1) %3) #12
  ret ptr %4
}

; Function Attrs: mustprogress nounwind uwtable
define linkonce_odr hidden noundef nonnull align 8 dereferenceable(8) ptr @_ZNSt10_Head_baseILm0EPN5clang22MangleNumberingContextELb0EE7_M_headERS3_(ptr noundef nonnull align 8 dereferenceable(8) %0) #0 comdat align 2 {
  %2 = alloca ptr, align 8
  store ptr %0, ptr %2, align 8
  %3 = load ptr, ptr %2, align 8
  %4 = getelementptr inbounds nuw %"struct.std::_Head_base.448", ptr %3, i32 0, i32 0
  ret ptr %4
}

; Function Attrs: mustprogress nounwind uwtable
define linkonce_odr hidden noundef ptr @_ZNK4llvm8DenseMapIPKN5clang4TypeEjNS_12DenseMapInfoIS4_vEENS_6detail12DenseMapPairIS4_jEEE10getBucketsEv(ptr noundef nonnull align 8 dereferenceable(20) %0) #0 comdat align 2 {
  %2 = alloca ptr, align 8
  store ptr %0, ptr %2, align 8
  %3 = load ptr, ptr %2, align 8
  %4 = getelementptr inbounds nuw %"class.llvm::DenseMap.128", ptr %3, i32 0, i32 0
  %5 = load ptr, ptr %4, align 8
  ret ptr %5
}

; Function Attrs: mustprogress nounwind uwtable
define linkonce_odr hidden noundef ptr @_ZN4llvm12DenseMapInfoIPKN5clang4TypeEvE15getTombstoneKeyEv() #0 comdat align 2 {
  %1 = alloca i64, align 8
  store i64 -2, ptr %1, align 8
  %2 = load i64, ptr %1, align 8
  %3 = shl i64 %2, 12
  store i64 %3, ptr %1, align 8
  %4 = load i64, ptr %1, align 8
  %5 = inttoptr i64 %4 to ptr
  ret ptr %5
}

; Function Attrs: mustprogress nounwind uwtable
define linkonce_odr hidden noundef ptr @_ZN4llvm12DenseMapInfoIPKN5clang4TypeEvE11getEmptyKeyEv() #0 comdat align 2 {
  %1 = alloca i64, align 8
  store i64 -1, ptr %1, align 8
  %2 = load i64, ptr %1, align 8
  %3 = shl i64 %2, 12
  store i64 %3, ptr %1, align 8
  %4 = load i64, ptr %1, align 8
  %5 = inttoptr i64 %4 to ptr
  ret ptr %5
}

; Function Attrs: mustprogress nounwind uwtable
define linkonce_odr hidden noundef i32 @_ZNK4llvm8DenseMapIPKN5clang4TypeEjNS_12DenseMapInfoIS4_vEENS_6detail12DenseMapPairIS4_jEEE13getNumBucketsEv(ptr noundef nonnull align 8 dereferenceable(20) %0) #0 comdat align 2 {
  %2 = alloca ptr, align 8
  store ptr %0, ptr %2, align 8
  %3 = load ptr, ptr %2, align 8
  %4 = getelementptr inbounds nuw %"class.llvm::DenseMap.128", ptr %3, i32 0, i32 3
  %5 = load i32, ptr %4, align 8
  ret i32 %5
}

; Function Attrs: mustprogress nounwind uwtable
define linkonce_odr noundef nonnull align 1 dereferenceable(1) ptr @_ZSt12__get_helperILm1ESt14default_deleteIN5clang22MangleNumberingContextEEJEERT0_RSt11_Tuple_implIXT_EJS4_DpT1_EE(ptr noundef nonnull align 1 dereferenceable(1) %0) #0 comdat {
  %2 = alloca ptr, align 8
  store ptr %0, ptr %2, align 8
  %3 = load ptr, ptr %2, align 8
  %4 = call noundef nonnull align 1 dereferenceable(1) ptr @_ZNSt11_Tuple_implILm1EJSt14default_deleteIN5clang22MangleNumberingContextEEEE7_M_headERS4_(ptr noundef nonnull align 1 dereferenceable(1) %3) #12
  ret ptr %4
}

; Function Attrs: mustprogress nounwind uwtable
define linkonce_odr hidden noundef nonnull align 8 dereferenceable(8) ptr @_ZNSt11_Tuple_implILm0EJPN5clang22MangleNumberingContextESt14default_deleteIS1_EEE7_M_headERS5_(ptr noundef nonnull align 8 dereferenceable(8) %0) #0 comdat align 2 {
  %2 = alloca ptr, align 8
  store ptr %0, ptr %2, align 8
  %3 = load ptr, ptr %2, align 8
  %4 = call noundef nonnull align 8 dereferenceable(8) ptr @_ZNSt10_Head_baseILm0EPN5clang22MangleNumberingContextELb0EE7_M_headERS3_(ptr noundef nonnull align 8 dereferenceable(8) %3) #12
  ret ptr %4
}

; Function Attrs: mustprogress nounwind uwtable
define linkonce_odr hidden noundef nonnull align 4 dereferenceable(4) ptr @_ZN4llvm6detail12DenseMapPairIPKN5clang4TypeEjE9getSecondEv(ptr noundef nonnull align 8 dereferenceable(12) %0) #0 comdat align 2 {
  %2 = alloca ptr, align 8
  store ptr %0, ptr %2, align 8
  %3 = load ptr, ptr %2, align 8
  %4 = getelementptr inbounds nuw %"struct.std::pair.520", ptr %3, i32 0, i32 1
  ret ptr %4
}

; Function Attrs: mustprogress nounwind uwtable
define linkonce_odr hidden noundef zeroext i1 @_ZN4llvm12DenseMapInfoIPKN5clang4TypeEvE7isEqualES4_S4_(ptr noundef %0, ptr noundef %1) #0 comdat align 2 {
  %3 = alloca ptr, align 8
  %4 = alloca ptr, align 8
  store ptr %0, ptr %3, align 8
  store ptr %1, ptr %4, align 8
  %5 = load ptr, ptr %3, align 8
  %6 = load ptr, ptr %4, align 8
  %7 = icmp eq ptr %5, %6
  ret i1 %7
}

; Function Attrs: mustprogress nounwind uwtable
define linkonce_odr hidden noundef nonnull align 8 dereferenceable(8) ptr @_ZN4llvm6detail12DenseMapPairIPKN5clang4TypeEjE8getFirstEv(ptr noundef nonnull align 8 dereferenceable(12) %0) #0 comdat align 2 {
  %2 = alloca ptr, align 8
  store ptr %0, ptr %2, align 8
  %3 = load ptr, ptr %2, align 8
  %4 = getelementptr inbounds nuw %"struct.std::pair.520", ptr %3, i32 0, i32 0
  ret ptr %4
}

; Function Attrs: mustprogress nounwind uwtable
define linkonce_odr hidden noundef ptr @_ZN4llvm12DenseMapBaseINS_8DenseMapIPKN5clang4TypeEjNS_12DenseMapInfoIS5_vEENS_6detail12DenseMapPairIS5_jEEEES5_jS7_SA_E13getBucketsEndEv(ptr noundef nonnull align 1 dereferenceable(1) %0) #0 comdat align 2 {
  %2 = alloca ptr, align 8
  store ptr %0, ptr %2, align 8
  %3 = load ptr, ptr %2, align 8
  %4 = call noundef ptr @_ZN4llvm12DenseMapBaseINS_8DenseMapIPKN5clang4TypeEjNS_12DenseMapInfoIS5_vEENS_6detail12DenseMapPairIS5_jEEEES5_jS7_SA_E10getBucketsEv(ptr noundef nonnull align 1 dereferenceable(1) %3)
  %5 = call noundef i32 @_ZNK4llvm12DenseMapBaseINS_8DenseMapIPKN5clang4TypeEjNS_12DenseMapInfoIS5_vEENS_6detail12DenseMapPairIS5_jEEEES5_jS7_SA_E13getNumBucketsEv(ptr noundef nonnull align 1 dereferenceable(1) %3)
  %6 = zext i32 %5 to i64
  %7 = getelementptr inbounds %"struct.llvm::detail::DenseMapPair.519", ptr %4, i64 %6
  ret ptr %7
}

; Function Attrs: mustprogress nounwind uwtable
define linkonce_odr hidden noundef ptr @_ZN4llvm12DenseMapBaseINS_8DenseMapIPKN5clang4TypeEjNS_12DenseMapInfoIS5_vEENS_6detail12DenseMapPairIS5_jEEEES5_jS7_SA_E10getBucketsEv(ptr noundef nonnull align 1 dereferenceable(1) %0) #0 comdat align 2 {
  %2 = alloca ptr, align 8
  store ptr %0, ptr %2, align 8
  %3 = load ptr, ptr %2, align 8
  %4 = call noundef ptr @_ZNK4llvm8DenseMapIPKN5clang4TypeEjNS_12DenseMapInfoIS4_vEENS_6detail12DenseMapPairIS4_jEEE10getBucketsEv(ptr noundef nonnull align 8 dereferenceable(20) %3)
  ret ptr %4
}

; Function Attrs: mustprogress nounwind uwtable
define linkonce_odr hidden noundef ptr @_ZN4llvm12DenseMapBaseINS_8DenseMapIPKN5clang4TypeEjNS_12DenseMapInfoIS5_vEENS_6detail12DenseMapPairIS5_jEEEES5_jS7_SA_E15getTombstoneKeyEv() #0 comdat align 2 {
  %1 = call noundef ptr @_ZN4llvm12DenseMapInfoIPKN5clang4TypeEvE15getTombstoneKeyEv()
  ret ptr %1
}

; Function Attrs: mustprogress nounwind uwtable
define linkonce_odr hidden noundef ptr @_ZN4llvm12DenseMapBaseINS_8DenseMapIPKN5clang4TypeEjNS_12DenseMapInfoIS5_vEENS_6detail12DenseMapPairIS5_jEEEES5_jS7_SA_E11getEmptyKeyEv() #0 comdat align 2 {
  %1 = call noundef ptr @_ZN4llvm12DenseMapInfoIPKN5clang4TypeEvE11getEmptyKeyEv()
  ret ptr %1
}

; Function Attrs: mustprogress nounwind uwtable
define linkonce_odr hidden noundef i32 @_ZNK4llvm12DenseMapBaseINS_8DenseMapIPKN5clang4TypeEjNS_12DenseMapInfoIS5_vEENS_6detail12DenseMapPairIS5_jEEEES5_jS7_SA_E13getNumBucketsEv(ptr noundef nonnull align 1 dereferenceable(1) %0) #0 comdat align 2 {
  %2 = alloca ptr, align 8
  store ptr %0, ptr %2, align 8
  %3 = load ptr, ptr %2, align 8
  %4 = call noundef i32 @_ZNK4llvm8DenseMapIPKN5clang4TypeEjNS_12DenseMapInfoIS4_vEENS_6detail12DenseMapPairIS4_jEEE13getNumBucketsEv(ptr noundef nonnull align 8 dereferenceable(20) %3)
  ret i32 %4
}

; Function Attrs: mustprogress nounwind uwtable
define linkonce_odr noundef nonnull align 1 dereferenceable(1) ptr @_ZSt3getILm1EJPN5clang22MangleNumberingContextESt14default_deleteIS1_EEERNSt13tuple_elementIXT_ESt5tupleIJDpT0_EEE4typeERS9_(ptr noundef nonnull align 8 dereferenceable(8) %0) #0 comdat {
  %2 = alloca ptr, align 8
  store ptr %0, ptr %2, align 8
  %3 = load ptr, ptr %2, align 8
  %4 = call noundef nonnull align 1 dereferenceable(1) ptr @_ZSt12__get_helperILm1ESt14default_deleteIN5clang22MangleNumberingContextEEJEERT0_RSt11_Tuple_implIXT_EJS4_DpT1_EE(ptr noundef nonnull align 1 dereferenceable(1) %3) #12
  ret ptr %4
}

; Function Attrs: mustprogress nounwind uwtable
define linkonce_odr noundef nonnull align 8 dereferenceable(8) ptr @_ZSt12__get_helperILm0EPN5clang22MangleNumberingContextEJSt14default_deleteIS1_EEERT0_RSt11_Tuple_implIXT_EJS5_DpT1_EE(ptr noundef nonnull align 8 dereferenceable(8) %0) #0 comdat {
  %2 = alloca ptr, align 8
  store ptr %0, ptr %2, align 8
  %3 = load ptr, ptr %2, align 8
  %4 = call noundef nonnull align 8 dereferenceable(8) ptr @_ZNSt11_Tuple_implILm0EJPN5clang22MangleNumberingContextESt14default_deleteIS1_EEE7_M_headERS5_(ptr noundef nonnull align 8 dereferenceable(8) %3) #12
  ret ptr %4
}

; Function Attrs: mustprogress nounwind uwtable
define linkonce_odr hidden void @_ZN4llvm12DenseMapBaseINS_8DenseMapIPKN5clang4TypeEjNS_12DenseMapInfoIS5_vEENS_6detail12DenseMapPairIS5_jEEEES5_jS7_SA_E10destroyAllEv(ptr noundef nonnull align 1 dereferenceable(1) %0) #0 comdat align 2 {
  %2 = alloca ptr, align 8
  %3 = alloca ptr, align 8
  %4 = alloca ptr, align 8
  %5 = alloca ptr, align 8
  %6 = alloca ptr, align 8
  store ptr %0, ptr %2, align 8
  %7 = load ptr, ptr %2, align 8
  %8 = call noundef i32 @_ZNK4llvm12DenseMapBaseINS_8DenseMapIPKN5clang4TypeEjNS_12DenseMapInfoIS5_vEENS_6detail12DenseMapPairIS5_jEEEES5_jS7_SA_E13getNumBucketsEv(ptr noundef nonnull align 1 dereferenceable(1) %7)
  %9 = icmp eq i32 %8, 0
  br i1 %9, label %10, label %11

10:                                               ; preds = %1
  br label %41

11:                                               ; preds = %1
  %12 = call noundef ptr @_ZN4llvm12DenseMapBaseINS_8DenseMapIPKN5clang4TypeEjNS_12DenseMapInfoIS5_vEENS_6detail12DenseMapPairIS5_jEEEES5_jS7_SA_E11getEmptyKeyEv()
  store ptr %12, ptr %3, align 8
  %13 = call noundef ptr @_ZN4llvm12DenseMapBaseINS_8DenseMapIPKN5clang4TypeEjNS_12DenseMapInfoIS5_vEENS_6detail12DenseMapPairIS5_jEEEES5_jS7_SA_E15getTombstoneKeyEv()
  store ptr %13, ptr %4, align 8
  %14 = call noundef ptr @_ZN4llvm12DenseMapBaseINS_8DenseMapIPKN5clang4TypeEjNS_12DenseMapInfoIS5_vEENS_6detail12DenseMapPairIS5_jEEEES5_jS7_SA_E10getBucketsEv(ptr noundef nonnull align 1 dereferenceable(1) %7)
  store ptr %14, ptr %5, align 8
  %15 = call noundef ptr @_ZN4llvm12DenseMapBaseINS_8DenseMapIPKN5clang4TypeEjNS_12DenseMapInfoIS5_vEENS_6detail12DenseMapPairIS5_jEEEES5_jS7_SA_E13getBucketsEndEv(ptr noundef nonnull align 1 dereferenceable(1) %7)
  store ptr %15, ptr %6, align 8
  br label %16

16:                                               ; preds = %38, %11
  %17 = load ptr, ptr %5, align 8
  %18 = load ptr, ptr %6, align 8
  %19 = icmp ne ptr %17, %18
  br i1 %19, label %20, label %41

20:                                               ; preds = %16
  %21 = load ptr, ptr %5, align 8
  %22 = call noundef nonnull align 8 dereferenceable(8) ptr @_ZN4llvm6detail12DenseMapPairIPKN5clang4TypeEjE8getFirstEv(ptr noundef nonnull align 8 dereferenceable(12) %21)
  %23 = load ptr, ptr %22, align 8
  %24 = load ptr, ptr %3, align 8
  %25 = call noundef zeroext i1 @_ZN4llvm12DenseMapInfoIPKN5clang4TypeEvE7isEqualES4_S4_(ptr noundef %23, ptr noundef %24)
  br i1 %25, label %35, label %26

26:                                               ; preds = %20
  %27 = load ptr, ptr %5, align 8
  %28 = call noundef nonnull align 8 dereferenceable(8) ptr @_ZN4llvm6detail12DenseMapPairIPKN5clang4TypeEjE8getFirstEv(ptr noundef nonnull align 8 dereferenceable(12) %27)
  %29 = load ptr, ptr %28, align 8
  %30 = load ptr, ptr %4, align 8
  %31 = call noundef zeroext i1 @_ZN4llvm12DenseMapInfoIPKN5clang4TypeEvE7isEqualES4_S4_(ptr noundef %29, ptr noundef %30)
  br i1 %31, label %35, label %32

32:                                               ; preds = %26
  %33 = load ptr, ptr %5, align 8
  %34 = call noundef nonnull align 4 dereferenceable(4) ptr @_ZN4llvm6detail12DenseMapPairIPKN5clang4TypeEjE9getSecondEv(ptr noundef nonnull align 8 dereferenceable(12) %33)
  br label %35

35:                                               ; preds = %32, %26, %20
  %36 = load ptr, ptr %5, align 8
  %37 = call noundef nonnull align 8 dereferenceable(8) ptr @_ZN4llvm6detail12DenseMapPairIPKN5clang4TypeEjE8getFirstEv(ptr noundef nonnull align 8 dereferenceable(12) %36)
  br label %38

38:                                               ; preds = %35
  %39 = load ptr, ptr %5, align 8
  %40 = getelementptr inbounds %"struct.llvm::detail::DenseMapPair.519", ptr %39, i32 1
  store ptr %40, ptr %5, align 8
  br label %16, !llvm.loop !14

41:                                               ; preds = %16, %10
  ret void
}

; Function Attrs: mustprogress nounwind uwtable
define linkonce_odr hidden noundef nonnull align 1 dereferenceable(1) ptr @_ZNSt15__uniq_ptr_implIN5clang22MangleNumberingContextESt14default_deleteIS1_EE10_M_deleterEv(ptr noundef nonnull align 8 dereferenceable(8) %0) #0 comdat align 2 {
  %2 = alloca ptr, align 8
  store ptr %0, ptr %2, align 8
  %3 = load ptr, ptr %2, align 8
  %4 = getelementptr inbounds nuw %"class.std::__uniq_ptr_impl.443", ptr %3, i32 0, i32 0
  %5 = call noundef nonnull align 1 dereferenceable(1) ptr @_ZSt3getILm1EJPN5clang22MangleNumberingContextESt14default_deleteIS1_EEERNSt13tuple_elementIXT_ESt5tupleIJDpT0_EEE4typeERS9_(ptr noundef nonnull align 8 dereferenceable(8) %4) #12
  ret ptr %5
}

; Function Attrs: mustprogress nounwind uwtable
define linkonce_odr noundef nonnull align 8 dereferenceable(8) ptr @_ZSt3getILm0EJPN5clang22MangleNumberingContextESt14default_deleteIS1_EEERNSt13tuple_elementIXT_ESt5tupleIJDpT0_EEE4typeERS9_(ptr noundef nonnull align 8 dereferenceable(8) %0) #0 comdat {
  %2 = alloca ptr, align 8
  store ptr %0, ptr %2, align 8
  %3 = load ptr, ptr %2, align 8
  %4 = call noundef nonnull align 8 dereferenceable(8) ptr @_ZSt12__get_helperILm0EPN5clang22MangleNumberingContextEJSt14default_deleteIS1_EEERT0_RSt11_Tuple_implIXT_EJS5_DpT1_EE(ptr noundef nonnull align 8 dereferenceable(8) %3) #12
  ret ptr %4
}

; Function Attrs: mustprogress nounwind uwtable
define linkonce_odr hidden void @_ZN5clang22MangleNumberingContextD2Ev(ptr noundef nonnull align 8 dereferenceable(12) %0) unnamed_addr #0 comdat align 2 {
  %2 = alloca ptr, align 8
  store ptr %0, ptr %2, align 8
  ret void
}

; Function Attrs: mustprogress nounwind uwtable
define linkonce_odr hidden void @_ZN4llvm8DenseMapIPKN5clang4TypeEjNS_12DenseMapInfoIS4_vEENS_6detail12DenseMapPairIS4_jEEED2Ev(ptr noundef nonnull align 8 dereferenceable(20) %0) unnamed_addr #0 comdat align 2 {
  %2 = alloca ptr, align 8
  store ptr %0, ptr %2, align 8
  %3 = load ptr, ptr %2, align 8
  call void @_ZN4llvm12DenseMapBaseINS_8DenseMapIPKN5clang4TypeEjNS_12DenseMapInfoIS5_vEENS_6detail12DenseMapPairIS5_jEEEES5_jS7_SA_E10destroyAllEv(ptr noundef nonnull align 1 dereferenceable(1) %3)
  %4 = getelementptr inbounds nuw %"class.llvm::DenseMap.128", ptr %3, i32 0, i32 0
  %5 = load ptr, ptr %4, align 8
  %6 = getelementptr inbounds nuw %"class.llvm::DenseMap.128", ptr %3, i32 0, i32 3
  %7 = load i32, ptr %6, align 8
  %8 = zext i32 %7 to i64
  %9 = mul i64 16, %8
  call void @_ZN4llvm17deallocate_bufferEPvmm(ptr noundef %5, i64 noundef %9, i64 noundef 8)
  ret void
}

; Function Attrs: mustprogress nounwind uwtable
define linkonce_odr hidden void @_ZNKSt14default_deleteIN5clang22MangleNumberingContextEEclEPS1_(ptr noundef nonnull align 1 dereferenceable(1) %0, ptr noundef %1) #0 comdat align 2 {
  %3 = alloca ptr, align 8
  %4 = alloca ptr, align 8
  store ptr %0, ptr %3, align 8
  store ptr %1, ptr %4, align 8
  %5 = load ptr, ptr %4, align 8
  %6 = icmp eq ptr %5, null
  br i1 %6, label %11, label %7

7:                                                ; preds = %2
  %8 = load ptr, ptr %5, align 8
  %9 = getelementptr inbounds ptr, ptr %8, i64 1
  %10 = load ptr, ptr %9, align 8
  call void %10(ptr noundef nonnull align 8 dereferenceable(12) %5) #12
  br label %11

11:                                               ; preds = %7, %2
  ret void
}

; Function Attrs: mustprogress nounwind uwtable
define linkonce_odr hidden noundef nonnull align 1 dereferenceable(1) ptr @_ZNSt10unique_ptrIN5clang22MangleNumberingContextESt14default_deleteIS1_EE11get_deleterEv(ptr noundef nonnull align 8 dereferenceable(8) %0) #0 comdat align 2 {
  %2 = alloca ptr, align 8
  store ptr %0, ptr %2, align 8
  %3 = load ptr, ptr %2, align 8
  %4 = getelementptr inbounds nuw %"class.std::unique_ptr.441", ptr %3, i32 0, i32 0
  %5 = call noundef nonnull align 1 dereferenceable(1) ptr @_ZNSt15__uniq_ptr_implIN5clang22MangleNumberingContextESt14default_deleteIS1_EE10_M_deleterEv(ptr noundef nonnull align 8 dereferenceable(8) %4) #12
  ret ptr %5
}

; Function Attrs: mustprogress nounwind uwtable
define linkonce_odr hidden noundef nonnull align 8 dereferenceable(8) ptr @_ZNSt15__uniq_ptr_implIN5clang22MangleNumberingContextESt14default_deleteIS1_EE6_M_ptrEv(ptr noundef nonnull align 8 dereferenceable(8) %0) #0 comdat align 2 {
  %2 = alloca ptr, align 8
  store ptr %0, ptr %2, align 8
  %3 = load ptr, ptr %2, align 8
  %4 = getelementptr inbounds nuw %"class.std::__uniq_ptr_impl.443", ptr %3, i32 0, i32 0
  %5 = call noundef nonnull align 8 dereferenceable(8) ptr @_ZSt3getILm0EJPN5clang22MangleNumberingContextESt14default_deleteIS1_EEERNSt13tuple_elementIXT_ESt5tupleIJDpT0_EEE4typeERS9_(ptr noundef nonnull align 8 dereferenceable(8) %4) #12
  ret ptr %5
}

; Function Attrs: mustprogress nounwind uwtable
define internal void @_ZN12_GLOBAL__N_125MicrosoftNumberingContextD2Ev(ptr noundef nonnull align 8 dereferenceable(52) %0) unnamed_addr #0 align 2 {
  %2 = alloca ptr, align 8
  store ptr %0, ptr %2, align 8
  %3 = load ptr, ptr %2, align 8
  store ptr getelementptr inbounds inrange(-16, 64) ({ [10 x ptr] }, ptr @_ZTVN12_GLOBAL__N_125MicrosoftNumberingContextE, i32 0, i32 0, i32 2), ptr %3, align 8
  %4 = getelementptr inbounds nuw %"class.(anonymous namespace)::MicrosoftNumberingContext", ptr %3, i32 0, i32 2
  call void @_ZN4llvm8DenseMapIPKN5clang4TypeEjNS_12DenseMapInfoIS4_vEENS_6detail12DenseMapPairIS4_jEEED2Ev(ptr noundef nonnull align 8 dereferenceable(20) %4) #12
  call void @_ZN5clang22MangleNumberingContextD2Ev(ptr noundef nonnull align 8 dereferenceable(12) %3) #12
  ret void
}

; Function Attrs: mustprogress nounwind uwtable
define linkonce_odr hidden void @_ZNSt10unique_ptrIN5clang22MangleNumberingContextESt14default_deleteIS1_EED2Ev(ptr noundef nonnull align 8 dereferenceable(8) %0) unnamed_addr #0 comdat align 2 {
  %2 = alloca ptr, align 8
  %3 = alloca ptr, align 8
  store ptr %0, ptr %2, align 8
  %4 = load ptr, ptr %2, align 8
  %5 = getelementptr inbounds nuw %"class.std::unique_ptr.441", ptr %4, i32 0, i32 0
  %6 = call noundef nonnull align 8 dereferenceable(8) ptr @_ZNSt15__uniq_ptr_implIN5clang22MangleNumberingContextESt14default_deleteIS1_EE6_M_ptrEv(ptr noundef nonnull align 8 dereferenceable(8) %5) #12
  store ptr %6, ptr %3, align 8
  %7 = load ptr, ptr %3, align 8
  %8 = load ptr, ptr %7, align 8
  %9 = icmp ne ptr %8, null
  br i1 %9, label %10, label %14

10:                                               ; preds = %1
  %11 = call noundef nonnull align 1 dereferenceable(1) ptr @_ZNSt10unique_ptrIN5clang22MangleNumberingContextESt14default_deleteIS1_EE11get_deleterEv(ptr noundef nonnull align 8 dereferenceable(8) %4) #12
  %12 = load ptr, ptr %3, align 8
  %13 = load ptr, ptr %12, align 8
  call void @_ZNKSt14default_deleteIN5clang22MangleNumberingContextEEclEPS1_(ptr noundef nonnull align 1 dereferenceable(1) %11, ptr noundef %13)
  br label %14

14:                                               ; preds = %10, %1
  %15 = load ptr, ptr %3, align 8
  store ptr null, ptr %15, align 8
  ret void
}

; Function Attrs: mustprogress nounwind uwtable
define internal void @_ZN12_GLOBAL__N_122MSSYCLNumberingContextD2Ev(ptr noundef nonnull align 8 dereferenceable(64) %0) unnamed_addr #0 align 2 {
  %2 = alloca ptr, align 8
  store ptr %0, ptr %2, align 8
  %3 = load ptr, ptr %2, align 8
  store ptr getelementptr inbounds inrange(-16, 64) ({ [10 x ptr] }, ptr @_ZTVN12_GLOBAL__N_122MSSYCLNumberingContextE, i32 0, i32 0, i32 2), ptr %3, align 8
  %4 = getelementptr inbounds nuw %"class.(anonymous namespace)::MSSYCLNumberingContext", ptr %3, i32 0, i32 1
  call void @_ZNSt10unique_ptrIN5clang22MangleNumberingContextESt14default_deleteIS1_EED2Ev(ptr noundef nonnull align 8 dereferenceable(8) %4) #12
  call void @_ZN12_GLOBAL__N_125MicrosoftNumberingContextD2Ev(ptr noundef nonnull align 8 dereferenceable(52) %3) #12
  ret void
}