; Function Attrs: mustprogress nounwind uwtable
define internal void @_ZN12_GLOBAL__N_122MSSYCLNumberingContextD2Ev(ptr nocapture noundef nonnull align 8 dereferenceable(64) %0) unnamed_addr #0 align 2 {
  store ptr getelementptr inbounds inrange(-16, 64) (i8, ptr @_ZTVN12_GLOBAL__N_122MSSYCLNumberingContextE, i64 16), ptr %0, align 8
  %2 = getelementptr inbounds nuw i8, ptr %0, i64 56
  %3 = load ptr, ptr %2, align 8
  %.not.i = icmp eq ptr %3, null
  br i1 %.not.i, label %_ZNSt10unique_ptrIN5clang22MangleNumberingContextESt14default_deleteIS1_EED2Ev.exit, label %_ZNKSt14default_deleteIN5clang22MangleNumberingContextEEclEPS1_.exit.i

_ZNKSt14default_deleteIN5clang22MangleNumberingContextEEclEPS1_.exit.i: ; preds = %1
  %4 = load ptr, ptr %3, align 8
  %5 = getelementptr inbounds i8, ptr %4, i64 8
  %6 = load ptr, ptr %5, align 8
  tail call void %6(ptr noundef nonnull align 8 dereferenceable(12) %3) #12
  br label %_ZNSt10unique_ptrIN5clang22MangleNumberingContextESt14default_deleteIS1_EED2Ev.exit

_ZNSt10unique_ptrIN5clang22MangleNumberingContextESt14default_deleteIS1_EED2Ev.exit: ; preds = %1, %_ZNKSt14default_deleteIN5clang22MangleNumberingContextEEclEPS1_.exit.i
  store ptr null, ptr %2, align 8
  store ptr getelementptr inbounds inrange(-16, 64) (i8, ptr @_ZTVN12_GLOBAL__N_125MicrosoftNumberingContextE, i64 16), ptr %0, align 8
  %7 = getelementptr inbounds nuw i8, ptr %0, i64 16
  %8 = load ptr, ptr %7, align 8
  %9 = getelementptr inbounds i8, ptr %0, i64 32
  %10 = load i32, ptr %9, align 8
  %11 = zext i32 %10 to i64
  %12 = shl nuw nsw i64 %11, 4
  tail call void @_ZN4llvm17deallocate_bufferEPvmm(ptr noundef %8, i64 noundef %12, i64 noundef 8) #12
  ret void
}